; Function Attrs: nounwind uwtable
define hidden zeroext i1 @SDL_SetWindowIcon_REAL(ptr noundef %0, ptr noundef %1) local_unnamed_addr #0 {
  %3 = load ptr, ptr @_this, align 8
  %.not = icmp eq ptr %3, null
  br i1 %.not, label %4, label %6

4:                                                ; preds = %2
  %5 = tail call zeroext i1 (ptr, ...) @SDL_SetError_REAL(ptr noundef nonnull @.str.1) #19
  br label %25

6:                                                ; preds = %2
  %7 = tail call zeroext i1 @SDL_ObjectValid(ptr noundef %0, i32 noundef 1) #19
  br i1 %7, label %10, label %8

8:                                                ; preds = %6
  %9 = tail call zeroext i1 (ptr, ...) @SDL_SetError_REAL(ptr noundef nonnull @.str.20) #19
  br label %25

10:                                               ; preds = %6
  %.not12 = icmp eq ptr %1, null
  br i1 %.not12, label %11, label %13

11:                                               ; preds = %10
  %12 = tail call zeroext i1 (ptr, ...) @SDL_SetError_REAL(ptr noundef nonnull @.str.2, ptr noundef nonnull @.str.45) #19
  br label %25

13:                                               ; preds = %10
  %14 = getelementptr inbounds nuw i8, ptr %0, i64 16
  %15 = load ptr, ptr %14, align 8
  tail call void @SDL_DestroySurface_REAL(ptr noundef %15) #19
  %16 = tail call ptr @SDL_ConvertSurface_REAL(ptr noundef nonnull %1, i32 noundef 372645892) #19
  store ptr %16, ptr %14, align 8
  %.not13 = icmp eq ptr %16, null
  br i1 %.not13, label %25, label %17

17:                                               ; preds = %13
  %18 = load ptr, ptr @_this, align 8
  %19 = getelementptr inbounds nuw i8, ptr %18, i64 88
  %20 = load ptr, ptr %19, align 8
  %.not14 = icmp eq ptr %20, null
  br i1 %.not14, label %21, label %23

21:                                               ; preds = %17
  %22 = tail call zeroext i1 (ptr, ...) @SDL_SetError_REAL(ptr noundef nonnull @.str.24) #19
  br label %25

23:                                               ; preds = %17
  %24 = tail call zeroext i1 %20(ptr noundef nonnull %18, ptr noundef nonnull %0, ptr noundef nonnull %16) #19
  br label %25

25:                                               ; preds = %13, %23, %21, %11, %8, %4
  %.0 = phi i1 [ %24, %23 ], [ %22, %21 ], [ %12, %11 ], [ false, %8 ], [ false, %4 ], [ false, %13 ]
  ret i1 %.0
}